; Function Attrs: nounwind uwtable
define zeroext i1 @H5D__chunk_is_space_alloc(ptr noundef %0) #0 {
  %2 = load i8, ptr @H5D_init_g, align 1, !tbaa !3, !range !7, !noundef !8
  %3 = trunc nuw i8 %2 to i1
  %4 = load i8, ptr @H5_libterm_g, align 1, !range !7
  %5 = trunc nuw i8 %4 to i1
  %6 = xor i1 %5, true
  %7 = select i1 %3, i1 true, i1 %6
  br i1 %7, label %8, label %15, !prof !9

8:                                                ; preds = %1
  %9 = getelementptr inbounds nuw i8, ptr %0, i64 8
  %10 = getelementptr inbounds nuw i8, ptr %0, i64 24
  %11 = load ptr, ptr %10, align 8, !tbaa !51
  %12 = getelementptr inbounds nuw i8, ptr %11, i64 48
  %13 = load ptr, ptr %12, align 8, !tbaa !77
  %14 = tail call zeroext i1 %13(ptr noundef nonnull %9) #15
  br label %15

15:                                               ; preds = %8, %1
  %.0 = phi i1 [ %14, %8 ], [ false, %1 ]
  ret i1 %.0
}